(dp0
S'a'
p1
S'First Party Collection'
p2
sS'c'
p3
S'User Choice/Control'
p4
sS'b'
p5
S'Third Party Sharing and Collection'
p6
sS'e'
p7
S'Data Security'
p8
sS'd'
p9
S'Introductory/Generic'
p10
sS'g'
p11
S'Privacy Contact Information'
p12
sS'f'
p13
S'Internal and Specific Audiences'
p14
sS'i'
p15
S'Policy Change'
p16
sS'h'
p17
S'User Access, Edit, and Deletion*]'
p18
sS'k'
p19
S'Cookies and Similar Information'
p20
sS'j'
p21
S'Data Retention'
p22
sS'm'
p23
S'Data Transfer'
p24
sS'l'
p25
S'First Party Use'
p26
s.